; Function Attrs: nounwind uwtable
define i32 @Gia_NodeMffcMapping_rec(ptr noundef %0, i32 noundef %1, ptr noundef captures(none) %2, ptr noundef captures(none) %3) local_unnamed_addr #2 {
  %.not = icmp eq i32 %1, 0
  br i1 %.not, label %.critedge, label %5

5:                                                ; preds = %4
  %6 = getelementptr i8, ptr %2, i64 8
  %.val37 = load ptr, ptr %6, align 8
  %7 = sext i32 %1 to i64
  %8 = getelementptr inbounds i32, ptr %.val37, i64 %7
  %9 = load i32, ptr %8, align 4
  %.not33 = icmp eq i32 %9, 0
  br i1 %.not33, label %10, label %.critedge

10:                                               ; preds = %5
  %11 = getelementptr i8, ptr %0, i64 32
  %.val = load ptr, ptr %11, align 8
  %12 = getelementptr inbounds %struct.Gia_Obj_t_, ptr %.val, i64 %7
  %.val35 = load i64, ptr %12, align 4
  %13 = and i64 %.val35, 2684354559
  %narrow.i.not = icmp eq i64 %13, 2684354559
  br i1 %narrow.i.not, label %.critedge, label %14

14:                                               ; preds = %10
  %15 = tail call i32 @Gia_NodeMffcSizeSupp(ptr noundef nonnull %0, ptr noundef nonnull %12, ptr noundef %3)
  %16 = getelementptr i8, ptr %3, i64 4
  %.val42 = load i32, ptr %16, align 4
  %17 = getelementptr i8, ptr %3, i64 8
  %.val43 = load ptr, ptr %17, align 8
  %18 = sext i32 %.val42 to i64
  tail call void @qsort(ptr noundef %.val43, i64 noundef %18, i64 noundef 4, ptr noundef nonnull @Vec_IntSortCompare1) #36
  %19 = getelementptr i8, ptr %2, i64 4
  %.val40 = load i32, ptr %19, align 4
  %.val41 = load ptr, ptr %6, align 8
  %20 = getelementptr inbounds i32, ptr %.val41, i64 %7
  store i32 %.val40, ptr %20, align 4
  %.val39 = load i32, ptr %16, align 4
  %21 = load i32, ptr %2, align 8
  %22 = icmp eq i32 %.val40, %21
  br i1 %22, label %23, label %.Vec_IntGrow.exit10_crit_edge.i

.Vec_IntGrow.exit10_crit_edge.i:                  ; preds = %14
  %.pre.i = load ptr, ptr %6, align 8
  br label %Vec_IntPush.exit

23:                                               ; preds = %14
  %24 = icmp slt i32 %.val40, 16
  br i1 %24, label %25, label %32

25:                                               ; preds = %23
  %26 = load ptr, ptr %6, align 8
  %.not9.i.i = icmp eq ptr %26, null
  br i1 %.not9.i.i, label %29, label %27

27:                                               ; preds = %25
  %28 = tail call dereferenceable_or_null(64) ptr @realloc(ptr noundef nonnull %26, i64 noundef 64) #39
  br label %Vec_IntGrow.exit.i

29:                                               ; preds = %25
  %30 = tail call noalias dereferenceable_or_null(64) ptr @malloc(i64 noundef 64) #40
  br label %Vec_IntGrow.exit.i

Vec_IntGrow.exit.i:                               ; preds = %29, %27
  %31 = phi ptr [ %28, %27 ], [ %30, %29 ]
  store ptr %31, ptr %6, align 8
  store i32 16, ptr %2, align 8
  br label %Vec_IntPush.exit

32:                                               ; preds = %23
  %33 = shl nuw nsw i32 %.val40, 1
  %34 = load ptr, ptr %6, align 8
  %.not9.i9.i = icmp eq ptr %34, null
  %35 = zext nneg i32 %33 to i64
  %36 = shl nuw nsw i64 %35, 2
  br i1 %.not9.i9.i, label %39, label %37

37:                                               ; preds = %32
  %38 = tail call ptr @realloc(ptr noundef nonnull %34, i64 noundef %36) #39
  br label %41

39:                                               ; preds = %32
  %40 = tail call noalias ptr @malloc(i64 noundef %36) #40
  br label %41

41:                                               ; preds = %39, %37
  %42 = phi ptr [ %38, %37 ], [ %40, %39 ]
  store ptr %42, ptr %6, align 8
  store i32 %33, ptr %2, align 8
  br label %Vec_IntPush.exit

Vec_IntPush.exit:                                 ; preds = %.Vec_IntGrow.exit10_crit_edge.i, %Vec_IntGrow.exit.i, %41
  %43 = phi ptr [ %.pre.i, %.Vec_IntGrow.exit10_crit_edge.i ], [ %42, %41 ], [ %31, %Vec_IntGrow.exit.i ]
  %44 = load i32, ptr %19, align 4
  %45 = add nsw i32 %44, 1
  store i32 %45, ptr %19, align 4
  %46 = sext i32 %44 to i64
  %47 = getelementptr inbounds i32, ptr %43, i64 %46
  store i32 %.val39, ptr %47, align 4
  tail call fastcc void @Vec_IntAppend(ptr noundef nonnull %2, ptr noundef nonnull %3)
  %48 = load i32, ptr %19, align 4
  %49 = load i32, ptr %2, align 8
  %50 = icmp eq i32 %48, %49
  br i1 %50, label %51, label %.Vec_IntGrow.exit10_crit_edge.i44

.Vec_IntGrow.exit10_crit_edge.i44:                ; preds = %Vec_IntPush.exit
  %.pre.i46 = load ptr, ptr %6, align 8
  br label %Vec_IntPush.exit50

51:                                               ; preds = %Vec_IntPush.exit
  %52 = icmp slt i32 %48, 16
  br i1 %52, label %53, label %60

53:                                               ; preds = %51
  %54 = load ptr, ptr %6, align 8
  %.not9.i.i48 = icmp eq ptr %54, null
  br i1 %.not9.i.i48, label %57, label %55

55:                                               ; preds = %53
  %56 = tail call dereferenceable_or_null(64) ptr @realloc(ptr noundef nonnull %54, i64 noundef 64) #39
  br label %Vec_IntGrow.exit.i49

57:                                               ; preds = %53
  %58 = tail call noalias dereferenceable_or_null(64) ptr @malloc(i64 noundef 64) #40
  br label %Vec_IntGrow.exit.i49

Vec_IntGrow.exit.i49:                             ; preds = %57, %55
  %59 = phi ptr [ %56, %55 ], [ %58, %57 ]
  store ptr %59, ptr %6, align 8
  store i32 16, ptr %2, align 8
  br label %Vec_IntPush.exit50

60:                                               ; preds = %51
  %61 = shl nuw nsw i32 %48, 1
  %62 = load ptr, ptr %6, align 8
  %.not9.i9.i47 = icmp eq ptr %62, null
  %63 = zext nneg i32 %61 to i64
  %64 = shl nuw nsw i64 %63, 2
  br i1 %.not9.i9.i47, label %67, label %65

65:                                               ; preds = %60
  %66 = tail call ptr @realloc(ptr noundef nonnull %62, i64 noundef %64) #39
  br label %69

67:                                               ; preds = %60
  %68 = tail call noalias ptr @malloc(i64 noundef %64) #40
  br label %69

69:                                               ; preds = %67, %65
  %70 = phi ptr [ %66, %65 ], [ %68, %67 ]
  store ptr %70, ptr %6, align 8
  store i32 %61, ptr %2, align 8
  br label %Vec_IntPush.exit50

Vec_IntPush.exit50:                               ; preds = %.Vec_IntGrow.exit10_crit_edge.i44, %Vec_IntGrow.exit.i49, %69
  %71 = phi ptr [ %.pre.i46, %.Vec_IntGrow.exit10_crit_edge.i44 ], [ %70, %69 ], [ %59, %Vec_IntGrow.exit.i49 ]
  %72 = load i32, ptr %19, align 4
  %73 = add nsw i32 %72, 1
  store i32 %73, ptr %19, align 4
  %74 = sext i32 %72 to i64
  %75 = getelementptr inbounds i32, ptr %71, i64 %74
  store i32 %1, ptr %75, align 4
  %.val3851 = load i32, ptr %16, align 4
  %76 = icmp sgt i32 %.val3851, 0
  br i1 %76, label %.lr.ph, label %.critedge

.lr.ph:                                           ; preds = %Vec_IntPush.exit50, %.lr.ph
  %indvars.iv = phi i64 [ %indvars.iv.next, %.lr.ph ], [ 0, %Vec_IntPush.exit50 ]
  %.053 = phi i32 [ %80, %.lr.ph ], [ 1, %Vec_IntPush.exit50 ]
  %.val36 = load ptr, ptr %17, align 8
  %77 = getelementptr inbounds nuw i32, ptr %.val36, i64 %indvars.iv
  %78 = load i32, ptr %77, align 4
  %79 = tail call i32 @Gia_NodeMffcMapping_rec(ptr noundef nonnull %0, i32 noundef %78, ptr noundef nonnull %2, ptr noundef nonnull %3)
  %80 = add nsw i32 %79, %.053
  %indvars.iv.next = add nuw nsw i64 %indvars.iv, 1
  %.val38 = load i32, ptr %16, align 4
  %81 = sext i32 %.val38 to i64
  %82 = icmp slt i64 %indvars.iv.next, %81
  br i1 %82, label %.lr.ph, label %.critedge, !llvm.loop !42

.critedge:                                        ; preds = %.lr.ph, %Vec_IntPush.exit50, %10, %4, %5
  %.030 = phi i32 [ 0, %5 ], [ 0, %4 ], [ 0, %10 ], [ 1, %Vec_IntPush.exit50 ], [ %80, %.lr.ph ]
  ret i32 %.030
}